; Function Attrs: mustprogress nofree norecurse nosync nounwind willreturn memory(argmem: write) uwtable
define void @php_random_pcgoneseq128xslrr64_seed128(ptr nocapture noundef writeonly %0, i64 noundef %1, i64 noundef %2) local_unnamed_addr #0 {
  %.sroa.0.0.insert.ext.i13 = zext i64 %1 to i128
  %.sroa.02.0.insert.insert.i = add nuw nsw i128 %.sroa.0.0.insert.ext.i13, 117397592171526113268558934119004209487
  %4 = lshr i128 %.sroa.02.0.insert.insert.i, 64
  %.tr.i = trunc i128 %4 to i64
  %.narrow.i = add i64 %.tr.i, %2
  %.sroa.2.0.insert.ext = zext i64 %.narrow.i to i128
  %.sroa.2.0.insert.shift = shl nuw i128 %.sroa.2.0.insert.ext, 64
  %.sroa.0.0.insert.ext = and i128 %.sroa.02.0.insert.insert.i, 18446744073709551615
  %.sroa.0.0.insert.insert = or disjoint i128 %.sroa.2.0.insert.shift, %.sroa.0.0.insert.ext
  %5 = mul i128 %.sroa.0.0.insert.insert, 47026247687942121848144207491837523525
  %.sroa.02.0.insert.insert.i21.i15 = add i128 %5, 1442695040888963407
  %6 = lshr i128 %.sroa.02.0.insert.insert.i21.i15, 64
  %.tr.i.i16 = trunc i128 %6 to i64
  %.narrow.i.i17 = add i64 %.tr.i.i16, 6364136223846793005
  %.sroa.2.0.insert.ext.i18 = zext i64 %.narrow.i.i17 to i128
  %.sroa.2.0.insert.shift.i19 = shl nuw i128 %.sroa.2.0.insert.ext.i18, 64
  %.sroa.0.0.insert.ext.i20 = and i128 %.sroa.02.0.insert.insert.i21.i15, 18446744073709551615
  %.sroa.0.0.insert.insert.i21 = or disjoint i128 %.sroa.2.0.insert.shift.i19, %.sroa.0.0.insert.ext.i20
  store i128 %.sroa.0.0.insert.insert.i21, ptr %0, align 16
  ret void
}